target datalayout = "e-m:e-p270:32:32-p271:32:32-p272:64:64-i64:64-i128:128-f80:128-n8:16:32:64-S128"
target triple = "x86_64-unknown-linux-gnu"

%struct.QEnumLookup = type { ptr, ptr, i32 }

@WatchdogAction_lookup = external constant %struct.QEnumLookup, align 8

; Function Attrs: nounwind sspstrong uwtable
define dso_local zeroext i1 @visit_type_WatchdogAction(ptr noundef %v, ptr noundef %name, ptr noundef %obj, ptr noundef %errp) #0 {
entry:
  %v.addr = alloca ptr, align 8
  %name.addr = alloca ptr, align 8
  %obj.addr = alloca ptr, align 8
  %errp.addr = alloca ptr, align 8
  %value = alloca i32, align 4
  %ok = alloca i8, align 1
  store ptr %v, ptr %v.addr, align 8
  store ptr %name, ptr %name.addr, align 8
  store ptr %obj, ptr %obj.addr, align 8
  store ptr %errp, ptr %errp.addr, align 8
  %0 = load ptr, ptr %obj.addr, align 8
  %1 = load i32, ptr %0, align 4
  store i32 %1, ptr %value, align 4
  %2 = load ptr, ptr %v.addr, align 8
  %3 = load ptr, ptr %name.addr, align 8
  %4 = load ptr, ptr %errp.addr, align 8
  %call = call zeroext i1 @visit_type_enum(ptr noundef %2, ptr noundef %3, ptr noundef %value, ptr noundef @WatchdogAction_lookup, ptr noundef %4)
  %frombool = zext i1 %call to i8
  store i8 %frombool, ptr %ok, align 1
  %5 = load i32, ptr %value, align 4
  %6 = load ptr, ptr %obj.addr, align 8
  store i32 %5, ptr %6, align 4
  %7 = load i8, ptr %ok, align 1
  %tobool = trunc i8 %7 to i1
  ret i1 %tobool
}